; Function Attrs: mustprogress uwtable
define void @_ZN2cv16phase_unwrapping29HistogramPhaseUnwrapping_ImplC2ERKNS0_24HistogramPhaseUnwrapping6ParamsE(ptr noundef nonnull align 8 dereferenceable(104) initializes((0, 28), (32, 56)) %0, ptr noundef readonly captures(none) %1, ptr noundef nonnull readonly align 4 captures(none) dereferenceable(20) %2) unnamed_addr #1 align 2 personality ptr @__gxx_personality_v0 {
  %4 = getelementptr inbounds nuw i8, ptr %1, i64 8
  %5 = getelementptr inbounds nuw i8, ptr %1, i64 16
  %6 = load ptr, ptr %5, align 8
  store ptr %6, ptr %0, align 8, !tbaa !13
  %7 = getelementptr inbounds nuw i8, ptr %1, i64 24
  %8 = load ptr, ptr %7, align 8
  %9 = getelementptr i8, ptr %6, i64 -80
  %10 = load i64, ptr %9, align 8
  %11 = getelementptr inbounds i8, ptr %0, i64 %10
  store ptr %8, ptr %11, align 8, !tbaa !13
  %12 = load ptr, ptr %4, align 8
  store ptr %12, ptr %0, align 8, !tbaa !13
  %13 = getelementptr inbounds nuw i8, ptr %1, i64 32
  %14 = load ptr, ptr %13, align 8
  %15 = getelementptr i8, ptr %12, i64 -80
  %16 = load i64, ptr %15, align 8
  %17 = getelementptr inbounds i8, ptr %0, i64 %16
  store ptr %14, ptr %17, align 8, !tbaa !13
  %18 = load ptr, ptr %1, align 8
  store ptr %18, ptr %0, align 8, !tbaa !13
  %19 = getelementptr inbounds nuw i8, ptr %1, i64 40
  %20 = load ptr, ptr %19, align 8
  %21 = getelementptr i8, ptr %18, i64 -80
  %22 = load i64, ptr %21, align 8
  %23 = getelementptr inbounds i8, ptr %0, i64 %22
  store ptr %20, ptr %23, align 8, !tbaa !13
  %24 = getelementptr inbounds nuw i8, ptr %0, i64 8
  tail call void @llvm.memcpy.p0.p0.i64(ptr noundef nonnull align 8 dereferenceable(20) %24, ptr noundef nonnull align 4 dereferenceable(20) %2, i64 20, i1 false), !tbaa.struct !15
  %25 = getelementptr inbounds nuw i8, ptr %0, i64 32
  tail call void @llvm.memset.p0.i64(ptr noundef nonnull align 8 dereferenceable(24) %25, i8 0, i64 24, i1 false)
  %26 = getelementptr inbounds nuw i8, ptr %0, i64 56
  invoke void @_ZN2cv16phase_unwrapping29HistogramPhaseUnwrapping_Impl9HistogramC1Ev(ptr noundef nonnull align 8 dereferenceable(48) %26)
          to label %27 unwind label %28

27:                                               ; preds = %3
  ret void

28:                                               ; preds = %3
  %29 = landingpad { ptr, i32 }
          cleanup
  %30 = load ptr, ptr %25, align 8, !tbaa !18
  %.not.i.i.i = icmp eq ptr %30, null
  br i1 %.not.i.i.i, label %_ZNSt6vectorIN2cv16phase_unwrapping29HistogramPhaseUnwrapping_Impl5PixelESaIS3_EED2Ev.exit, label %31

31:                                               ; preds = %28
  tail call void @_ZdlPv(ptr noundef nonnull %30) #23
  br label %_ZNSt6vectorIN2cv16phase_unwrapping29HistogramPhaseUnwrapping_Impl5PixelESaIS3_EED2Ev.exit

_ZNSt6vectorIN2cv16phase_unwrapping29HistogramPhaseUnwrapping_Impl5PixelESaIS3_EED2Ev.exit: ; preds = %28, %31
  resume { ptr, i32 } %29
}